target datalayout = "e-m:e-p270:32:32-p271:32:32-p272:64:64-i64:64-i128:128-f80:128-n8:16:32:64-S128"
target triple = "x86_64-pc-linux-gnu"

@_ZN8TypeLong4ZEROE = external global ptr, align 8
@_ZN8TypeLong3ONEE = external global ptr, align 8

; Function Attrs: mustprogress nounwind uwtable
define linkonce_odr hidden noundef zeroext i1 @_ZN9MulHelperI16OverflowMulLNodeE12can_overflowEPK4TypeS4_(ptr noundef %0, ptr noundef %1) #1 comdat align 2 {
  %3 = alloca i1, align 1
  %4 = alloca ptr, align 8
  %5 = alloca ptr, align 8
  store ptr %0, ptr %4, align 8
  store ptr %1, ptr %5, align 8
  %6 = load ptr, ptr %4, align 8
  %7 = load ptr, ptr @_ZN8TypeLong4ZEROE, align 8
  %8 = icmp eq ptr %6, %7
  br i1 %8, label %13, label %9

9:                                                ; preds = %2
  %10 = load ptr, ptr %5, align 8
  %11 = load ptr, ptr @_ZN8TypeLong4ZEROE, align 8
  %12 = icmp eq ptr %10, %11
  br i1 %12, label %13, label %14

13:                                               ; preds = %9, %2
  store i1 false, ptr %3, align 1
  br label %25

14:                                               ; preds = %9
  %15 = load ptr, ptr %4, align 8
  %16 = load ptr, ptr @_ZN8TypeLong3ONEE, align 8
  %17 = icmp eq ptr %15, %16
  br i1 %17, label %22, label %18

18:                                               ; preds = %14
  %19 = load ptr, ptr %5, align 8
  %20 = load ptr, ptr @_ZN8TypeLong3ONEE, align 8
  %21 = icmp eq ptr %19, %20
  br i1 %21, label %22, label %23

22:                                               ; preds = %18, %14
  store i1 false, ptr %3, align 1
  br label %25

23:                                               ; preds = %18
  br label %24

24:                                               ; preds = %23
  store i1 true, ptr %3, align 1
  br label %25

25:                                               ; preds = %24, %22, %13
  %26 = load i1, ptr %3, align 1
  ret i1 %26
}

; Function Attrs: mustprogress nounwind uwtable
define hidden noundef zeroext i1 @_ZNK16OverflowMulLNode12can_overflowEPK4TypeS2_(ptr noundef nonnull align 8 dereferenceable(52) %0, ptr noundef %1, ptr noundef %2) unnamed_addr #1 align 2 {
  %4 = alloca ptr, align 8
  %5 = alloca ptr, align 8
  %6 = alloca ptr, align 8
  store ptr %0, ptr %4, align 8
  store ptr %1, ptr %5, align 8
  store ptr %2, ptr %6, align 8
  %7 = load ptr, ptr %5, align 8
  %8 = load ptr, ptr %6, align 8
  %9 = call noundef zeroext i1 @_ZN9MulHelperI16OverflowMulLNodeE12can_overflowEPK4TypeS4_(ptr noundef %7, ptr noundef %8)
  ret i1 %9
}