; Function Attrs: mustprogress nofree norecurse nosync nounwind willreturn memory(read, argmem: none, inaccessiblemem: none) uwtable
define hidden noundef zeroext i1 @_ZNK16OverflowMulLNode12can_overflowEPK4TypeS2_(ptr nocapture noundef nonnull readnone align 8 dereferenceable(52) %0, ptr noundef readnone %1, ptr noundef readnone %2) unnamed_addr #1 align 2 {
  %4 = load ptr, ptr @_ZN8TypeLong4ZEROE, align 8
  %5 = icmp eq ptr %4, %1
  %6 = icmp eq ptr %4, %2
  %or.cond.i = or i1 %5, %6
  br i1 %or.cond.i, label %_ZN9MulHelperI16OverflowMulLNodeE12can_overflowEPK4TypeS4_.exit, label %7

7:                                                ; preds = %3
  %8 = load ptr, ptr @_ZN8TypeLong3ONEE, align 8
  %9 = icmp ne ptr %8, %1
  %10 = icmp ne ptr %8, %2
  %or.cond9.not.i = and i1 %9, %10
  br label %_ZN9MulHelperI16OverflowMulLNodeE12can_overflowEPK4TypeS4_.exit

_ZN9MulHelperI16OverflowMulLNodeE12can_overflowEPK4TypeS4_.exit: ; preds = %3, %7
  %.0.i = phi i1 [ false, %3 ], [ %or.cond9.not.i, %7 ]
  ret i1 %.0.i
}